target datalayout = "e-m:e-p270:32:32-p271:32:32-p272:64:64-i64:64-i128:128-f80:128-n8:16:32:64-S128"
target triple = "x86_64-pc-linux-gnu"

%struct.ident_t = type { i32, i32, i32, i32, ptr }
%"struct.faiss::Top1BlockResultHandler" = type { %"struct.faiss::BlockResultHandler", ptr, ptr }
%"struct.faiss::BlockResultHandler" = type { ptr, i64, i64, i64 }
%"struct.faiss::Top1BlockResultHandler<faiss::CMin<float, long>>::SingleResultHandler" = type { %"struct.faiss::ResultHandler.base", ptr, i64, i64 }
%"struct.faiss::ResultHandler.base" = type <{ ptr, float }>
%"struct.faiss::ResultHandler" = type <{ ptr, float, [4 x i8] }>

@1 = private unnamed_addr constant %struct.ident_t { i32 0, i32 514, i32 0, i32 22, ptr @0 }, align 8
@3 = private unnamed_addr constant %struct.ident_t { i32 0, i32 66, i32 0, i32 22, ptr @0 }, align 8

; Function Attrs: mustprogress nounwind uwtable
define linkonce_odr noundef float @_ZNSt14numeric_limitsIfE6lowestEv() #0 comdat align 2 {
  ret float 0xC7EFFFFFE0000000
}

; Function Attrs: mustprogress nounwind uwtable
define linkonce_odr void @_ZN5faiss13ResultHandlerINS_4CMinIflEEED2Ev(ptr noundef nonnull align 8 dereferenceable(12) %0) unnamed_addr #0 comdat align 2 {
  %2 = alloca ptr, align 8
  store ptr %0, ptr %2, align 8
  ret void
}

; Function Attrs: mustprogress nounwind uwtable
define linkonce_odr noundef zeroext i1 @_ZN5faiss4CMinIflE3cmpEff(float noundef %0, float noundef %1) #0 comdat align 2 {
  %3 = alloca float, align 4
  %4 = alloca float, align 4
  store float %0, ptr %3, align 4
  store float %1, ptr %4, align 4
  %5 = load float, ptr %3, align 4
  %6 = load float, ptr %4, align 4
  %7 = fcmp olt float %5, %6
  ret i1 %7
}

; Function Attrs: mustprogress nounwind uwtable
define linkonce_odr noundef float @_ZN5faiss4CMinIflE7neutralEv() #0 comdat align 2 {
  %1 = call noundef float @_ZNSt14numeric_limitsIfE6lowestEv() #2
  ret float %1
}

; Function Attrs: mustprogress nounwind uwtable
define linkonce_odr void @_ZN5faiss13ResultHandlerINS_4CMinIflEEEC2Ev(ptr noundef nonnull align 8 dereferenceable(12) %0) unnamed_addr #0 comdat align 2 {
  %2 = alloca ptr, align 8
  store ptr %0, ptr %2, align 8
  %3 = load ptr, ptr %2, align 8
  store ptr getelementptr inbounds ({ [5 x ptr] }, ptr @_ZTVN5faiss13ResultHandlerINS_4CMinIflEEEE, i32 0, i32 0, i32 2), ptr %3, align 8
  %4 = getelementptr inbounds %"struct.faiss::ResultHandler", ptr %3, i32 0, i32 1
  store float 0.000000e+00, ptr %4, align 8
  ret void
}

; Function Attrs: mustprogress nounwind uwtable
define linkonce_odr void @_ZN5faiss22Top1BlockResultHandlerINS_4CMinIflEEE19SingleResultHandlerD2Ev(ptr noundef nonnull align 8 dereferenceable(40) %0) unnamed_addr #0 comdat align 2 {
  %2 = alloca ptr, align 8
  store ptr %0, ptr %2, align 8
  %3 = load ptr, ptr %2, align 8
  call void @_ZN5faiss13ResultHandlerINS_4CMinIflEEED2Ev(ptr noundef nonnull align 8 dereferenceable(12) %3) #2
  ret void
}

; Function Attrs: mustprogress nounwind uwtable
define linkonce_odr void @_ZN5faiss22Top1BlockResultHandlerINS_4CMinIflEEE19SingleResultHandler3endEv(ptr noundef nonnull align 8 dereferenceable(40) %0) #0 comdat align 2 {
  %2 = alloca ptr, align 8
  store ptr %0, ptr %2, align 8
  %3 = load ptr, ptr %2, align 8
  %4 = getelementptr inbounds %"struct.faiss::ResultHandler", ptr %3, i32 0, i32 1
  %5 = load float, ptr %4, align 8
  %6 = getelementptr inbounds %"struct.faiss::Top1BlockResultHandler<faiss::CMin<float, long>>::SingleResultHandler", ptr %3, i32 0, i32 1
  %7 = load ptr, ptr %6, align 8
  %8 = getelementptr inbounds %"struct.faiss::Top1BlockResultHandler", ptr %7, i32 0, i32 1
  %9 = load ptr, ptr %8, align 8
  %10 = getelementptr inbounds %"struct.faiss::Top1BlockResultHandler<faiss::CMin<float, long>>::SingleResultHandler", ptr %3, i32 0, i32 3
  %11 = load i64, ptr %10, align 8
  %12 = getelementptr inbounds float, ptr %9, i64 %11
  store float %5, ptr %12, align 4
  %13 = getelementptr inbounds %"struct.faiss::Top1BlockResultHandler<faiss::CMin<float, long>>::SingleResultHandler", ptr %3, i32 0, i32 2
  %14 = load i64, ptr %13, align 8
  %15 = getelementptr inbounds %"struct.faiss::Top1BlockResultHandler<faiss::CMin<float, long>>::SingleResultHandler", ptr %3, i32 0, i32 1
  %16 = load ptr, ptr %15, align 8
  %17 = getelementptr inbounds %"struct.faiss::Top1BlockResultHandler", ptr %16, i32 0, i32 2
  %18 = load ptr, ptr %17, align 8
  %19 = getelementptr inbounds %"struct.faiss::Top1BlockResultHandler<faiss::CMin<float, long>>::SingleResultHandler", ptr %3, i32 0, i32 3
  %20 = load i64, ptr %19, align 8
  %21 = getelementptr inbounds i64, ptr %18, i64 %20
  store i64 %14, ptr %21, align 8
  ret void
}

; Function Attrs: mustprogress nounwind uwtable
define linkonce_odr noundef zeroext i1 @_ZN5faiss22Top1BlockResultHandlerINS_4CMinIflEEE19SingleResultHandler10add_resultEfl(ptr noundef nonnull align 8 dereferenceable(40) %0, float noundef %1, i64 noundef %2) unnamed_addr #0 comdat align 2 {
  %4 = alloca i1, align 1
  %5 = alloca ptr, align 8
  %6 = alloca float, align 4
  %7 = alloca i64, align 8
  store ptr %0, ptr %5, align 8
  store float %1, ptr %6, align 4
  store i64 %2, ptr %7, align 8
  %8 = load ptr, ptr %5, align 8
  %9 = getelementptr inbounds %"struct.faiss::ResultHandler", ptr %8, i32 0, i32 1
  %10 = load float, ptr %9, align 8
  %11 = load float, ptr %6, align 4
  %12 = call noundef zeroext i1 @_ZN5faiss4CMinIflE3cmpEff(float noundef %10, float noundef %11)
  br i1 %12, label %13, label %18

13:                                               ; preds = %3
  %14 = load float, ptr %6, align 4
  %15 = getelementptr inbounds %"struct.faiss::ResultHandler", ptr %8, i32 0, i32 1
  store float %14, ptr %15, align 8
  %16 = load i64, ptr %7, align 8
  %17 = getelementptr inbounds %"struct.faiss::Top1BlockResultHandler<faiss::CMin<float, long>>::SingleResultHandler", ptr %8, i32 0, i32 2
  store i64 %16, ptr %17, align 8
  store i1 true, ptr %4, align 1
  br label %19

18:                                               ; preds = %3
  store i1 false, ptr %4, align 1
  br label %19

19:                                               ; preds = %18, %13
  %20 = load i1, ptr %4, align 1
  ret i1 %20
}

; Function Attrs: mustprogress nounwind uwtable
define linkonce_odr void @_ZN5faiss22Top1BlockResultHandlerINS_4CMinIflEEE19SingleResultHandler5beginEm(ptr noundef nonnull align 8 dereferenceable(40) %0, i64 noundef %1) #0 comdat align 2 {
  %3 = alloca ptr, align 8
  %4 = alloca i64, align 8
  store ptr %0, ptr %3, align 8
  store i64 %1, ptr %4, align 8
  %5 = load ptr, ptr %3, align 8
  %6 = load i64, ptr %4, align 8
  %7 = getelementptr inbounds %"struct.faiss::Top1BlockResultHandler<faiss::CMin<float, long>>::SingleResultHandler", ptr %5, i32 0, i32 3
  store i64 %6, ptr %7, align 8
  %8 = call noundef float @_ZN5faiss4CMinIflE7neutralEv()
  %9 = getelementptr inbounds %"struct.faiss::ResultHandler", ptr %5, i32 0, i32 1
  store float %8, ptr %9, align 8
  %10 = getelementptr inbounds %"struct.faiss::Top1BlockResultHandler<faiss::CMin<float, long>>::SingleResultHandler", ptr %5, i32 0, i32 2
  store i64 -1, ptr %10, align 8
  ret void
}

; Function Attrs: mustprogress nounwind uwtable
define linkonce_odr void @_ZN5faiss22Top1BlockResultHandlerINS_4CMinIflEEE19SingleResultHandlerC2ERS3_(ptr noundef nonnull align 8 dereferenceable(40) %0, ptr noundef nonnull align 8 dereferenceable(48) %1) unnamed_addr #0 comdat align 2 {
  %3 = alloca ptr, align 8
  %4 = alloca ptr, align 8
  store ptr %0, ptr %3, align 8
  store ptr %1, ptr %4, align 8
  %5 = load ptr, ptr %3, align 8
  call void @_ZN5faiss13ResultHandlerINS_4CMinIflEEEC2Ev(ptr noundef nonnull align 8 dereferenceable(12) %5) #2
  store ptr getelementptr inbounds ({ [5 x ptr] }, ptr @_ZTVN5faiss22Top1BlockResultHandlerINS_4CMinIflEEE19SingleResultHandlerE, i32 0, i32 0, i32 2), ptr %5, align 8
  %6 = getelementptr inbounds %"struct.faiss::Top1BlockResultHandler<faiss::CMin<float, long>>::SingleResultHandler", ptr %5, i32 0, i32 1
  %7 = load ptr, ptr %4, align 8
  store ptr %7, ptr %6, align 8
  %8 = getelementptr inbounds %"struct.faiss::Top1BlockResultHandler<faiss::CMin<float, long>>::SingleResultHandler", ptr %5, i32 0, i32 3
  store i64 0, ptr %8, align 8
  ret void
}

; Function Attrs: norecurse nounwind uwtable
define internal void @_ZN5faiss12_GLOBAL__N_128exhaustive_inner_product_seqINS_22Top1BlockResultHandlerINS_4CMinIflEEEELb1EEEvPKfS7_mmmRT_PKNS_10IDSelectorE.omp_outlined(ptr noalias noundef %0, ptr noalias noundef %1, ptr noundef nonnull align 8 dereferenceable(48) %2, ptr noundef nonnull align 8 dereferenceable(8) %3, ptr noundef nonnull align 8 dereferenceable(8) %4, ptr noundef nonnull align 8 dereferenceable(8) %5, ptr noundef nonnull align 8 dereferenceable(8) %6, ptr noundef nonnull align 8 dereferenceable(8) %7, ptr noundef nonnull align 8 dereferenceable(8) %8) #1 personality ptr @__gxx_personality_v0 {
  %10 = alloca ptr, align 8
  %11 = alloca ptr, align 8
  %12 = alloca ptr, align 8
  %13 = alloca ptr, align 8
  %14 = alloca ptr, align 8
  %15 = alloca ptr, align 8
  %16 = alloca ptr, align 8
  %17 = alloca ptr, align 8
  %18 = alloca ptr, align 8
  %19 = alloca ptr, align 8
  %20 = alloca %"struct.faiss::Top1BlockResultHandler<faiss::CMin<float, long>>::SingleResultHandler", align 8
  %21 = alloca i64, align 8
  %22 = alloca i64, align 8
  %23 = alloca i64, align 8
  %24 = alloca i64, align 8
  %25 = alloca i64, align 8
  %26 = alloca i64, align 8
  %27 = alloca i64, align 8
  %28 = alloca i32, align 4
  %29 = alloca i64, align 8
  %30 = alloca ptr, align 8
  %31 = alloca ptr, align 8
  %32 = alloca i64, align 8
  %33 = alloca float, align 4
  store ptr %0, ptr %10, align 8
  store ptr %1, ptr %11, align 8
  store ptr %2, ptr %12, align 8
  store ptr %3, ptr %13, align 8
  store ptr %4, ptr %14, align 8
  store ptr %5, ptr %15, align 8
  store ptr %6, ptr %16, align 8
  store ptr %7, ptr %17, align 8
  store ptr %8, ptr %18, align 8
  %34 = load ptr, ptr %12, align 8
  %35 = load ptr, ptr %13, align 8
  %36 = load ptr, ptr %14, align 8
  %37 = load ptr, ptr %15, align 8
  %38 = load ptr, ptr %16, align 8
  %39 = load ptr, ptr %17, align 8
  %40 = load ptr, ptr %18, align 8
  store ptr %34, ptr %19, align 8
  %41 = load ptr, ptr %19, align 8
  invoke void @_ZN5faiss22Top1BlockResultHandlerINS_4CMinIflEEE19SingleResultHandlerC2ERS3_(ptr noundef nonnull align 8 dereferenceable(40) %20, ptr noundef nonnull align 8 dereferenceable(48) %41)
          to label %42 unwind label %123

42:                                               ; preds = %9
  %43 = load i64, ptr %35, align 8
  store i64 %43, ptr %22, align 8
  %44 = load i64, ptr %22, align 8
  %45 = sub i64 %44, 0
  %46 = udiv i64 %45, 1
  %47 = sub i64 %46, 1
  store i64 %47, ptr %23, align 8
  store i64 0, ptr %24, align 8
  %48 = load i64, ptr %22, align 8
  %49 = icmp ult i64 0, %48
  br i1 %49, label %50, label %120

50:                                               ; preds = %42
  store i64 0, ptr %25, align 8
  %51 = load i64, ptr %23, align 8
  store i64 %51, ptr %26, align 8
  store i64 1, ptr %27, align 8
  store i32 0, ptr %28, align 4
  %52 = load ptr, ptr %10, align 8
  %53 = load i32, ptr %52, align 4
  call void @__kmpc_for_static_init_8u(ptr @1, i32 %53, i32 34, ptr %28, ptr %25, ptr %26, ptr %27, i64 1, i64 1)
  %54 = load i64, ptr %26, align 8
  %55 = load i64, ptr %23, align 8
  %56 = icmp ugt i64 %54, %55
  br i1 %56, label %57, label %59

57:                                               ; preds = %50
  %58 = load i64, ptr %23, align 8
  br label %61

59:                                               ; preds = %50
  %60 = load i64, ptr %26, align 8
  br label %61

61:                                               ; preds = %59, %57
  %62 = phi i64 [ %58, %57 ], [ %60, %59 ]
  store i64 %62, ptr %26, align 8
  %63 = load i64, ptr %25, align 8
  store i64 %63, ptr %21, align 8
  br label %64

64:                                               ; preds = %113, %61
  %65 = load i64, ptr %21, align 8
  %66 = load i64, ptr %26, align 8
  %67 = add i64 %66, 1
  %68 = icmp ult i64 %65, %67
  br i1 %68, label %69, label %116

69:                                               ; preds = %64
  %70 = load i64, ptr %21, align 8
  %71 = mul i64 %70, 1
  %72 = add i64 0, %71
  store i64 %72, ptr %29, align 8
  %73 = load ptr, ptr %36, align 8
  %74 = load i64, ptr %29, align 8
  %75 = load i64, ptr %37, align 8
  %76 = mul i64 %74, %75
  %77 = getelementptr inbounds float, ptr %73, i64 %76
  store ptr %77, ptr %30, align 8
  %78 = load ptr, ptr %38, align 8
  store ptr %78, ptr %31, align 8
  %79 = load i64, ptr %29, align 8
  invoke void @_ZN5faiss22Top1BlockResultHandlerINS_4CMinIflEEE19SingleResultHandler5beginEm(ptr noundef nonnull align 8 dereferenceable(40) %20, i64 noundef %79)
          to label %80 unwind label %123

80:                                               ; preds = %69
  store i64 0, ptr %32, align 8
  br label %81

81:                                               ; preds = %104, %80
  %82 = load i64, ptr %32, align 8
  %83 = load i64, ptr %39, align 8
  %84 = icmp ult i64 %82, %83
  br i1 %84, label %85, label %110

85:                                               ; preds = %81
  %86 = load ptr, ptr %40, align 8
  %87 = load i64, ptr %32, align 8
  %88 = load ptr, ptr %86, align 8
  %89 = getelementptr inbounds ptr, ptr %88, i64 0
  %90 = load ptr, ptr %89, align 8
  %91 = invoke noundef zeroext i1 %90(ptr noundef nonnull align 8 dereferenceable(8) %86, i64 noundef %87)
          to label %92 unwind label %123

92:                                               ; preds = %85
  br i1 %91, label %94, label %93

93:                                               ; preds = %92
  br label %104

94:                                               ; preds = %92
  %95 = load ptr, ptr %30, align 8
  %96 = load ptr, ptr %31, align 8
  %97 = load i64, ptr %37, align 8
  %98 = invoke noundef float @_ZN5faiss18fvec_inner_productEPKfS1_m(ptr noundef %95, ptr noundef %96, i64 noundef %97)
          to label %99 unwind label %123

99:                                               ; preds = %94
  store float %98, ptr %33, align 4
  %100 = load float, ptr %33, align 4
  %101 = load i64, ptr %32, align 8
  %102 = invoke noundef zeroext i1 @_ZN5faiss22Top1BlockResultHandlerINS_4CMinIflEEE19SingleResultHandler10add_resultEfl(ptr noundef nonnull align 8 dereferenceable(40) %20, float noundef %100, i64 noundef %101)
          to label %103 unwind label %123

103:                                              ; preds = %99
  br label %104

104:                                              ; preds = %103, %93
  %105 = load i64, ptr %32, align 8
  %106 = add i64 %105, 1
  store i64 %106, ptr %32, align 8
  %107 = load i64, ptr %37, align 8
  %108 = load ptr, ptr %31, align 8
  %109 = getelementptr inbounds float, ptr %108, i64 %107
  store ptr %109, ptr %31, align 8
  br label %81, !llvm.loop !17

110:                                              ; preds = %81
  invoke void @_ZN5faiss22Top1BlockResultHandlerINS_4CMinIflEEE19SingleResultHandler3endEv(ptr noundef nonnull align 8 dereferenceable(40) %20)
          to label %111 unwind label %123

111:                                              ; preds = %110
  br label %112

112:                                              ; preds = %111
  br label %113

113:                                              ; preds = %112
  %114 = load i64, ptr %21, align 8
  %115 = add i64 %114, 1
  store i64 %115, ptr %21, align 8
  br label %64

116:                                              ; preds = %64
  br label %117

117:                                              ; preds = %116
  %118 = load ptr, ptr %10, align 8
  %119 = load i32, ptr %118, align 4
  call void @__kmpc_for_static_fini(ptr @1, i32 %119)
  br label %120

120:                                              ; preds = %117, %42
  %121 = load ptr, ptr %10, align 8
  %122 = load i32, ptr %121, align 4
  call void @__kmpc_barrier(ptr @3, i32 %122)
  call void @_ZN5faiss22Top1BlockResultHandlerINS_4CMinIflEEE19SingleResultHandlerD2Ev(ptr noundef nonnull align 8 dereferenceable(40) %20) #2
  ret void

123:                                              ; preds = %110, %99, %94, %85, %69, %9
  %124 = landingpad { ptr, i32 }
          catch ptr null
  %125 = extractvalue { ptr, i32 } %124, 0
  call void @__clang_call_terminate(ptr %125) #17
  unreachable
}